target datalayout = "e-m:e-p270:32:32-p271:32:32-p272:64:64-i64:64-i128:128-f80:128-n8:16:32:64-S128"
target triple = "x86_64-pc-linux-gnu"

%struct._generic_SUNLinearSolver = type { ptr, ptr, ptr }
%struct._SUNLinearSolverContent_SPBCGS = type { i32, i32, i32, i32, double, i32, ptr, ptr, ptr, ptr, ptr, ptr, ptr, ptr, ptr, ptr, ptr, ptr, ptr, ptr }

; Function Attrs: nounwind uwtable
define i32 @SUNLinSolInitialize_SPBCGS(ptr noundef %0) #0 {
  %2 = alloca ptr, align 8
  %3 = alloca ptr, align 8
  store ptr %0, ptr %2, align 8, !tbaa !12
  call void @llvm.lifetime.start.p0(i64 8, ptr %3) #5
  %4 = load ptr, ptr %2, align 8, !tbaa !12
  %5 = getelementptr inbounds nuw %struct._generic_SUNLinearSolver, ptr %4, i32 0, i32 2
  %6 = load ptr, ptr %5, align 8, !tbaa !59
  store ptr %6, ptr %3, align 8, !tbaa !10
  %7 = load ptr, ptr %2, align 8, !tbaa !12
  %8 = getelementptr inbounds nuw %struct._generic_SUNLinearSolver, ptr %7, i32 0, i32 0
  %9 = load ptr, ptr %8, align 8, !tbaa !35
  %10 = getelementptr inbounds nuw %struct._SUNLinearSolverContent_SPBCGS, ptr %9, i32 0, i32 0
  %11 = load i32, ptr %10, align 8, !tbaa !39
  %12 = icmp sle i32 %11, 0
  br i1 %12, label %13, label %18

13:                                               ; preds = %1
  %14 = load ptr, ptr %2, align 8, !tbaa !12
  %15 = getelementptr inbounds nuw %struct._generic_SUNLinearSolver, ptr %14, i32 0, i32 0
  %16 = load ptr, ptr %15, align 8, !tbaa !35
  %17 = getelementptr inbounds nuw %struct._SUNLinearSolverContent_SPBCGS, ptr %16, i32 0, i32 0
  store i32 5, ptr %17, align 8, !tbaa !39
  br label %18

18:                                               ; preds = %13, %1
  %19 = load ptr, ptr %2, align 8, !tbaa !12
  %20 = getelementptr inbounds nuw %struct._generic_SUNLinearSolver, ptr %19, i32 0, i32 0
  %21 = load ptr, ptr %20, align 8, !tbaa !35
  %22 = getelementptr inbounds nuw %struct._SUNLinearSolverContent_SPBCGS, ptr %21, i32 0, i32 1
  %23 = load i32, ptr %22, align 4, !tbaa !40
  %24 = icmp ne i32 %23, 1
  br i1 %24, label %25, label %44

25:                                               ; preds = %18
  %26 = load ptr, ptr %2, align 8, !tbaa !12
  %27 = getelementptr inbounds nuw %struct._generic_SUNLinearSolver, ptr %26, i32 0, i32 0
  %28 = load ptr, ptr %27, align 8, !tbaa !35
  %29 = getelementptr inbounds nuw %struct._SUNLinearSolverContent_SPBCGS, ptr %28, i32 0, i32 1
  %30 = load i32, ptr %29, align 4, !tbaa !40
  %31 = icmp ne i32 %30, 2
  br i1 %31, label %32, label %44

32:                                               ; preds = %25
  %33 = load ptr, ptr %2, align 8, !tbaa !12
  %34 = getelementptr inbounds nuw %struct._generic_SUNLinearSolver, ptr %33, i32 0, i32 0
  %35 = load ptr, ptr %34, align 8, !tbaa !35
  %36 = getelementptr inbounds nuw %struct._SUNLinearSolverContent_SPBCGS, ptr %35, i32 0, i32 1
  %37 = load i32, ptr %36, align 4, !tbaa !40
  %38 = icmp ne i32 %37, 3
  br i1 %38, label %39, label %44

39:                                               ; preds = %32
  %40 = load ptr, ptr %2, align 8, !tbaa !12
  %41 = getelementptr inbounds nuw %struct._generic_SUNLinearSolver, ptr %40, i32 0, i32 0
  %42 = load ptr, ptr %41, align 8, !tbaa !35
  %43 = getelementptr inbounds nuw %struct._SUNLinearSolverContent_SPBCGS, ptr %42, i32 0, i32 1
  store i32 0, ptr %43, align 4, !tbaa !40
  br label %44

44:                                               ; preds = %39, %32, %25, %18
  call void @llvm.lifetime.end.p0(i64 8, ptr %3) #5
  ret i32 0
}