; Function Attrs: mustprogress nofree norecurse nosync nounwind willreturn memory(readwrite, inaccessiblemem: none) uwtable
define noundef i32 @SUNLinSolInitialize_SPBCGS(ptr noundef readonly captures(none) %0) #5 {
  %2 = load ptr, ptr %0, align 8, !tbaa !26
  %3 = load i32, ptr %2, align 8, !tbaa !32
  %4 = icmp slt i32 %3, 1
  br i1 %4, label %5, label %6

5:                                                ; preds = %1
  store i32 5, ptr %2, align 8, !tbaa !32
  br label %6

6:                                                ; preds = %5, %1
  %7 = getelementptr inbounds nuw i8, ptr %2, i64 4
  %8 = load i32, ptr %7, align 4, !tbaa !33
  %.off = add i32 %8, -1
  %switch = icmp ult i32 %.off, 3
  br i1 %switch, label %10, label %9

9:                                                ; preds = %6
  store i32 0, ptr %7, align 4, !tbaa !33
  br label %10

10:                                               ; preds = %6, %9
  ret i32 0
}